; Function Attrs: mustprogress noreturn uwtable
define noundef i64 @_Z17logged_rv32e_mulwP11processor_t6insn_tm(ptr nocapture noundef readonly %0, i64 %1, i64 noundef %2) local_unnamed_addr #3 personality ptr @__gxx_personality_v0 {
  %4 = getelementptr inbounds i8, ptr %0, i64 968
  %5 = load ptr, ptr %4, align 8
  %6 = getelementptr inbounds i8, ptr %5, i64 40
  %.sink.i.i = load i64, ptr %6, align 8
  %7 = and i64 %.sink.i.i, 4096
  %.0.i.i.not = icmp eq i64 %7, 0
  br i1 %.0.i.i.not, label %8, label %16

8:                                                ; preds = %3
  %9 = getelementptr inbounds i8, ptr %0, i64 4144
  %.sink.i = load i64, ptr %9, align 8
  %10 = and i64 %.sink.i, 281474976710656
  %.0.i.not = icmp eq i64 %10, 0
  br i1 %.0.i.not, label %11, label %16

11:                                               ; preds = %8
  %12 = tail call ptr @__cxa_allocate_exception(i64 32) #14
  %13 = getelementptr inbounds i8, ptr %12, i64 8
  store i64 2, ptr %13, align 8
  %14 = getelementptr inbounds i8, ptr %12, i64 16
  store i8 0, ptr %14, align 8
  %15 = getelementptr inbounds i8, ptr %12, i64 24
  store i64 %1, ptr %15, align 8
  store ptr getelementptr inbounds ({ [12 x ptr] }, ptr @_ZTV24trap_illegal_instruction, i64 0, i32 0, i64 2), ptr %12, align 8
  tail call void @__cxa_throw(ptr nonnull %12, ptr nonnull @_ZTI24trap_illegal_instruction, ptr nonnull @_ZN24trap_illegal_instructionD2Ev) #15
  unreachable

16:                                               ; preds = %8, %3
  %17 = tail call ptr @__cxa_allocate_exception(i64 32) #14
  %18 = getelementptr inbounds i8, ptr %17, i64 8
  store i64 2, ptr %18, align 8
  %19 = getelementptr inbounds i8, ptr %17, i64 16
  store i8 0, ptr %19, align 8
  %20 = getelementptr inbounds i8, ptr %17, i64 24
  store i64 %1, ptr %20, align 8
  store ptr getelementptr inbounds ({ [12 x ptr] }, ptr @_ZTV24trap_illegal_instruction, i64 0, i32 0, i64 2), ptr %17, align 8
  tail call void @__cxa_throw(ptr nonnull %17, ptr nonnull @_ZTI24trap_illegal_instruction, ptr nonnull @_ZN24trap_illegal_instructionD2Ev) #15
  unreachable
}